target datalayout = "e-m:e-p270:32:32-p271:32:32-p272:64:64-i64:64-i128:128-f80:128-n8:16:32:64-S128"
target triple = "x86_64-pc-linux-gnu"

%class.EntryPoint = type { [10 x ptr] }

@_ZN19TemplateInterpreter13_return_entryE = hidden global [6 x %class.EntryPoint] zeroinitializer, align 16
@_ZN19TemplateInterpreter20_invoke_return_entryE = hidden global [10 x ptr] zeroinitializer, align 16
@_ZN19TemplateInterpreter29_invokeinterface_return_entryE = hidden global [10 x ptr] zeroinitializer, align 16
@_ZN19TemplateInterpreter27_invokedynamic_return_entryE = hidden global [10 x ptr] zeroinitializer, align 16
@g_assert_poison = external global ptr, align 8
@.str.13 = private unnamed_addr constant [54 x i8] c"src/hotspot/share/interpreter/templateInterpreter.cpp\00", align 1
@.str.15 = private unnamed_addr constant [80 x i8] c"guarantee(0 <= length && length < Interpreter::number_of_return_entries) failed\00", align 1
@.str.16 = private unnamed_addr constant [15 x i8] c"illegal length\00", align 1

; Function Attrs: mustprogress nounwind uwtable
define hidden noundef ptr @_ZNK10EntryPoint5entryE8TosState(ptr noundef nonnull align 8 dereferenceable(80) %0, i32 noundef %1) #1 align 2 {
  %3 = alloca ptr, align 8
  %4 = alloca i32, align 4
  store ptr %0, ptr %3, align 8
  store i32 %1, ptr %4, align 4
  %5 = load ptr, ptr %3, align 8
  %6 = getelementptr inbounds %class.EntryPoint, ptr %5, i32 0, i32 0
  %7 = load i32, ptr %4, align 4
  %8 = zext i32 %7 to i64
  %9 = getelementptr inbounds [10 x ptr], ptr %6, i64 0, i64 %8
  %10 = load ptr, ptr %9, align 8
  ret ptr %10
}

; Function Attrs: mustprogress nounwind uwtable
define hidden noundef i32 @_ZN19TemplateInterpreter17TosState_as_indexE8TosState(i32 noundef %0) #1 align 2 {
  %2 = alloca i32, align 4
  store i32 %0, ptr %2, align 4
  %3 = load i32, ptr %2, align 4
  ret i32 %3
}

; Function Attrs: mustprogress nounwind uwtable
define hidden noundef ptr @_ZN19TemplateInterpreter12return_entryE8TosStateiN9Bytecodes4CodeE(i32 noundef %0, i32 noundef %1, i32 noundef %2) #1 align 2 {
  %4 = alloca ptr, align 8
  %5 = alloca i32, align 4
  %6 = alloca i32, align 4
  %7 = alloca i32, align 4
  %8 = alloca i32, align 4
  %9 = alloca ptr, align 8
  store i32 %0, ptr %5, align 4
  store i32 %1, ptr %6, align 4
  store i32 %2, ptr %7, align 4
  br label %10

10:                                               ; preds = %3
  %11 = load i32, ptr %6, align 4
  %12 = icmp sle i32 0, %11
  br i1 %12, label %13, label %16

13:                                               ; preds = %10
  %14 = load i32, ptr %6, align 4
  %15 = icmp slt i32 %14, 6
  br i1 %15, label %18, label %16

16:                                               ; preds = %13, %10
  %17 = load ptr, ptr @g_assert_poison, align 8
  store i8 88, ptr %17, align 1
  call void (ptr, i32, ptr, ptr, ...) @_Z15report_vm_errorPKciS0_S0_z(ptr noundef @.str.13, i32 noundef 263, ptr noundef @.str.15, ptr noundef @.str.16) #9
  unreachable

18:                                               ; preds = %13
  br label %19

19:                                               ; preds = %18
  %20 = load i32, ptr %5, align 4
  %21 = call noundef i32 @_ZN19TemplateInterpreter17TosState_as_indexE8TosState(i32 noundef %20)
  store i32 %21, ptr %8, align 4
  %22 = load i32, ptr %7, align 4
  switch i32 %22, label %38 [
    i32 184, label %23
    i32 183, label %23
    i32 182, label %23
    i32 233, label %23
    i32 185, label %28
    i32 186, label %33
  ]

23:                                               ; preds = %19, %19, %19, %19
  %24 = load i32, ptr %8, align 4
  %25 = sext i32 %24 to i64
  %26 = getelementptr inbounds [10 x ptr], ptr @_ZN19TemplateInterpreter20_invoke_return_entryE, i64 0, i64 %25
  %27 = load ptr, ptr %26, align 8
  store ptr %27, ptr %4, align 8
  br label %45

28:                                               ; preds = %19
  %29 = load i32, ptr %8, align 4
  %30 = sext i32 %29 to i64
  %31 = getelementptr inbounds [10 x ptr], ptr @_ZN19TemplateInterpreter29_invokeinterface_return_entryE, i64 0, i64 %30
  %32 = load ptr, ptr %31, align 8
  store ptr %32, ptr %4, align 8
  br label %45

33:                                               ; preds = %19
  %34 = load i32, ptr %8, align 4
  %35 = sext i32 %34 to i64
  %36 = getelementptr inbounds [10 x ptr], ptr @_ZN19TemplateInterpreter27_invokedynamic_return_entryE, i64 0, i64 %35
  %37 = load ptr, ptr %36, align 8
  store ptr %37, ptr %4, align 8
  br label %45

38:                                               ; preds = %19
  %39 = load i32, ptr %6, align 4
  %40 = sext i32 %39 to i64
  %41 = getelementptr inbounds [6 x %class.EntryPoint], ptr @_ZN19TemplateInterpreter13_return_entryE, i64 0, i64 %40
  %42 = load i32, ptr %5, align 4
  %43 = call noundef ptr @_ZNK10EntryPoint5entryE8TosState(ptr noundef nonnull align 8 dereferenceable(80) %41, i32 noundef %42)
  store ptr %43, ptr %9, align 8
  %44 = load ptr, ptr %9, align 8
  store ptr %44, ptr %4, align 8
  br label %45

45:                                               ; preds = %38, %33, %28, %23
  %46 = load ptr, ptr %4, align 8
  ret ptr %46
}