; Function Attrs: mustprogress nounwind uwtable
define hidden noundef ptr @_ZN19TemplateInterpreter12return_entryE8TosStateiN9Bytecodes4CodeE(i32 noundef %0, i32 noundef %1, i32 noundef %2) local_unnamed_addr #0 align 2 {
  %or.cond = icmp ult i32 %1, 6
  br i1 %or.cond, label %6, label %4

4:                                                ; preds = %3
  %5 = load ptr, ptr @g_assert_poison, align 8
  store i8 88, ptr %5, align 1
  tail call void (ptr, i32, ptr, ptr, ...) @_Z15report_vm_errorPKciS0_S0_z(ptr noundef nonnull @.str.13, i32 noundef 263, ptr noundef nonnull @.str.15, ptr noundef nonnull @.str.16) #16
  unreachable

6:                                                ; preds = %3
  switch i32 %2, label %16 [
    i32 184, label %7
    i32 183, label %7
    i32 182, label %7
    i32 233, label %7
    i32 185, label %10
    i32 186, label %13
  ]

7:                                                ; preds = %6, %6, %6, %6
  %8 = sext i32 %0 to i64
  %9 = getelementptr inbounds [10 x ptr], ptr @_ZN19TemplateInterpreter20_invoke_return_entryE, i64 0, i64 %8
  br label %21

10:                                               ; preds = %6
  %11 = sext i32 %0 to i64
  %12 = getelementptr inbounds [10 x ptr], ptr @_ZN19TemplateInterpreter29_invokeinterface_return_entryE, i64 0, i64 %11
  br label %21

13:                                               ; preds = %6
  %14 = sext i32 %0 to i64
  %15 = getelementptr inbounds [10 x ptr], ptr @_ZN19TemplateInterpreter27_invokedynamic_return_entryE, i64 0, i64 %14
  br label %21

16:                                               ; preds = %6
  %17 = zext nneg i32 %1 to i64
  %18 = getelementptr inbounds [6 x %class.EntryPoint], ptr @_ZN19TemplateInterpreter13_return_entryE, i64 0, i64 %17
  %19 = zext i32 %0 to i64
  %20 = getelementptr inbounds [10 x ptr], ptr %18, i64 0, i64 %19
  br label %21

21:                                               ; preds = %16, %13, %10, %7
  %.0.in = phi ptr [ %20, %16 ], [ %15, %13 ], [ %12, %10 ], [ %9, %7 ]
  %.0 = load ptr, ptr %.0.in, align 8
  ret ptr %.0
}